target datalayout = "e-m:e-p270:32:32-p271:32:32-p272:64:64-i64:64-i128:128-f80:128-n8:16:32:64-S128"
target triple = "x86_64-pc-linux-gnu"

%class.ClassVerifier = type { ptr, ptr, ptr, ptr, ptr, %class.ResourceHashtable, %class.ErrorContext, ptr, %class.methodHandle, %class.VerificationType }
%class.ResourceHashtable = type { %class.ResourceHashtableBase.base, [4 x i8] }
%class.ResourceHashtableBase.base = type <{ %class.FixedResourceHashtableStorage, i32 }>
%class.FixedResourceHashtableStorage = type { [1007 x ptr] }
%class.ErrorContext = type { i32, i32, %class.TypeOrigin, %class.TypeOrigin }
%class.TypeOrigin = type { i32, i32, ptr, %class.VerificationType }
%class.methodHandle = type { ptr, ptr }
%class.VerificationType = type { %union.anon.3 }
%union.anon.3 = type { ptr }
%class.ThreadShadow = type <{ ptr, ptr, ptr, i32, [4 x i8] }>
%class.StackMapFrame = type { i32, i32, i32, i32, i16, i16, i8, ptr, ptr, ptr }

; Function Attrs: mustprogress nounwind uwtable
define linkonce_odr hidden noundef ptr @_ZNK13ClassVerifier6resultEv(ptr noundef nonnull align 8 dereferenceable(8192) %0) #1 comdat align 2 {
  %2 = alloca ptr, align 8
  store ptr %0, ptr %2, align 8
  %3 = load ptr, ptr %2, align 8
  %4 = getelementptr inbounds %class.ClassVerifier, ptr %3, i32 0, i32 3
  %5 = load ptr, ptr %4, align 8
  ret ptr %5
}

; Function Attrs: mustprogress nounwind uwtable
define linkonce_odr hidden ptr @_ZN16VerificationType10bogus_typeEv() #1 comdat align 2 {
  %1 = alloca %class.VerificationType, align 8
  call void @_ZN16VerificationTypeC2Em(ptr noundef nonnull align 8 dereferenceable(8) %1, i64 noundef 4294901761)
  %2 = getelementptr inbounds %class.VerificationType, ptr %1, i32 0, i32 0
  %3 = getelementptr inbounds %union.anon.3, ptr %2, i32 0, i32 0
  %4 = load ptr, ptr %3, align 8
  ret ptr %4
}

; Function Attrs: mustprogress nounwind uwtable
define linkonce_odr hidden noundef ptr @_ZNK13StackMapFrame8verifierEv(ptr noundef nonnull align 8 dereferenceable(48) %0) #1 comdat align 2 {
  %2 = alloca ptr, align 8
  store ptr %0, ptr %2, align 8
  %3 = load ptr, ptr %2, align 8
  %4 = getelementptr inbounds %class.StackMapFrame, ptr %3, i32 0, i32 9
  %5 = load ptr, ptr %4, align 8
  ret ptr %5
}

; Function Attrs: mustprogress nounwind uwtable
define linkonce_odr hidden void @_ZN16VerificationTypeC2Em(ptr noundef nonnull align 8 dereferenceable(8) %0, i64 noundef %1) unnamed_addr #1 comdat align 2 {
  %3 = alloca ptr, align 8
  %4 = alloca i64, align 8
  store ptr %0, ptr %3, align 8
  store i64 %1, ptr %4, align 8
  %5 = load ptr, ptr %3, align 8
  %6 = load i64, ptr %4, align 8
  %7 = getelementptr inbounds %class.VerificationType, ptr %5, i32 0, i32 0
  store i64 %6, ptr %7, align 8
  ret void
}

; Function Attrs: mustprogress nounwind uwtable
define linkonce_odr hidden noundef zeroext i1 @_ZNK13ClassVerifier9has_errorEv(ptr noundef nonnull align 8 dereferenceable(8192) %0) #1 comdat align 2 {
  %2 = alloca ptr, align 8
  store ptr %0, ptr %2, align 8
  %3 = load ptr, ptr %2, align 8
  %4 = call noundef ptr @_ZNK13ClassVerifier6resultEv(ptr noundef nonnull align 8 dereferenceable(8192) %3)
  %5 = icmp ne ptr %4, null
  ret i1 %5
}

; Function Attrs: mustprogress nounwind uwtable
define linkonce_odr hidden noundef zeroext i1 @_ZNK12ThreadShadow21has_pending_exceptionEv(ptr noundef nonnull align 8 dereferenceable(28) %0) #1 comdat align 2 {
  %2 = alloca ptr, align 8
  store ptr %0, ptr %2, align 8
  %3 = load ptr, ptr %2, align 8
  %4 = getelementptr inbounds %class.ThreadShadow, ptr %3, i32 0, i32 1
  %5 = load ptr, ptr %4, align 8
  %6 = icmp ne ptr %5, null
  ret i1 %6
}

; Function Attrs: mustprogress nounwind uwtable
define linkonce_odr hidden ptr @_ZN13StackMapFrame9pop_stackE16VerificationTypeP10JavaThread(ptr noundef nonnull align 8 dereferenceable(48) %0, ptr %1, ptr noundef %2) #1 comdat align 2 {
  %4 = alloca %class.VerificationType, align 8
  %5 = alloca %class.VerificationType, align 8
  %6 = alloca ptr, align 8
  %7 = alloca ptr, align 8
  %8 = alloca %class.VerificationType, align 8
  %9 = alloca i8, align 1
  %10 = alloca %class.VerificationType, align 8
  %11 = getelementptr inbounds %class.VerificationType, ptr %5, i32 0, i32 0
  %12 = getelementptr inbounds %union.anon.3, ptr %11, i32 0, i32 0
  store ptr %1, ptr %12, align 8
  store ptr %0, ptr %6, align 8
  store ptr %2, ptr %7, align 8
  %13 = load ptr, ptr %6, align 8
  %14 = getelementptr inbounds %class.StackMapFrame, ptr %13, i32 0, i32 2
  %15 = load i32, ptr %14, align 8
  %16 = icmp ne i32 %15, 0
  br i1 %16, label %17, label %43

17:                                               ; preds = %3
  %18 = getelementptr inbounds %class.StackMapFrame, ptr %13, i32 0, i32 8
  %19 = load ptr, ptr %18, align 8
  %20 = getelementptr inbounds %class.StackMapFrame, ptr %13, i32 0, i32 2
  %21 = load i32, ptr %20, align 8
  %22 = sub nsw i32 %21, 1
  %23 = sext i32 %22 to i64
  %24 = getelementptr inbounds %class.VerificationType, ptr %19, i64 %23
  call void @llvm.memcpy.p0.p0.i64(ptr align 8 %8, ptr align 8 %24, i64 8, i1 false)
  %25 = call noundef ptr @_ZNK13StackMapFrame8verifierEv(ptr noundef nonnull align 8 dereferenceable(48) %13)
  %26 = load ptr, ptr %7, align 8
  %27 = call noundef zeroext i1 @_ZNK16VerificationType18is_assignable_fromERKS_P13ClassVerifierbP10JavaThread(ptr noundef nonnull align 8 dereferenceable(8) %5, ptr noundef nonnull align 8 dereferenceable(8) %8, ptr noundef %25, i1 noundef zeroext false, ptr noundef %26)
  %28 = zext i1 %27 to i8
  store i8 %28, ptr %9, align 1
  %29 = load ptr, ptr %7, align 8
  %30 = call noundef zeroext i1 @_ZNK12ThreadShadow21has_pending_exceptionEv(ptr noundef nonnull align 8 dereferenceable(28) %29)
  br i1 %30, label %31, label %35

31:                                               ; preds = %17
  %32 = call ptr @_ZN16VerificationType10bogus_typeEv()
  %33 = getelementptr inbounds %class.VerificationType, ptr %4, i32 0, i32 0
  %34 = getelementptr inbounds %union.anon.3, ptr %33, i32 0, i32 0
  store ptr %32, ptr %34, align 8
  br label %51

35:                                               ; preds = %17
  %36 = load i8, ptr %9, align 1
  %37 = trunc i8 %36 to i1
  br i1 %37, label %38, label %42

38:                                               ; preds = %35
  %39 = getelementptr inbounds %class.StackMapFrame, ptr %13, i32 0, i32 2
  %40 = load i32, ptr %39, align 8
  %41 = add nsw i32 %40, -1
  store i32 %41, ptr %39, align 8
  call void @llvm.memcpy.p0.p0.i64(ptr align 8 %4, ptr align 8 %8, i64 8, i1 false)
  br label %51

42:                                               ; preds = %35
  br label %43

43:                                               ; preds = %42, %3
  call void @llvm.memcpy.p0.p0.i64(ptr align 8 %10, ptr align 8 %5, i64 8, i1 false)
  %44 = load ptr, ptr %7, align 8
  %45 = getelementptr inbounds %class.VerificationType, ptr %10, i32 0, i32 0
  %46 = getelementptr inbounds %union.anon.3, ptr %45, i32 0, i32 0
  %47 = load ptr, ptr %46, align 8
  %48 = call ptr @_ZN13StackMapFrame12pop_stack_exE16VerificationTypeP10JavaThread(ptr noundef nonnull align 8 dereferenceable(48) %13, ptr %47, ptr noundef %44)
  %49 = getelementptr inbounds %class.VerificationType, ptr %4, i32 0, i32 0
  %50 = getelementptr inbounds %union.anon.3, ptr %49, i32 0, i32 0
  store ptr %48, ptr %50, align 8
  br label %51

51:                                               ; preds = %43, %38, %31
  %52 = getelementptr inbounds %class.VerificationType, ptr %4, i32 0, i32 0
  %53 = getelementptr inbounds %union.anon.3, ptr %52, i32 0, i32 0
  %54 = load ptr, ptr %53, align 8
  ret ptr %54
}

; Function Attrs: mustprogress nounwind uwtable
define linkonce_odr hidden ptr @_ZN16VerificationType10float_typeEv() #1 comdat align 2 {
  %1 = alloca %class.VerificationType, align 8
  call void @_ZN16VerificationTypeC2Em(ptr noundef nonnull align 8 dereferenceable(8) %1, i64 noundef 131329)
  %2 = getelementptr inbounds %class.VerificationType, ptr %1, i32 0, i32 0
  %3 = getelementptr inbounds %union.anon.3, ptr %2, i32 0, i32 0
  %4 = load ptr, ptr %3, align 8
  ret ptr %4
}

; Function Attrs: mustprogress nounwind uwtable
define hidden void @_ZN13ClassVerifier13verify_fstoreEiP13StackMapFrameP10JavaThread(ptr noundef nonnull align 8 dereferenceable(8192) %0, i32 noundef %1, ptr noundef %2, ptr noundef %3) #1 align 2 {
  %5 = alloca ptr, align 8
  %6 = alloca i32, align 4
  %7 = alloca ptr, align 8
  %8 = alloca ptr, align 8
  %9 = alloca %class.VerificationType, align 8
  %10 = alloca %class.VerificationType, align 8
  %11 = alloca %class.VerificationType, align 8
  store ptr %0, ptr %5, align 8
  store i32 %1, ptr %6, align 4
  store ptr %2, ptr %7, align 8
  store ptr %3, ptr %8, align 8
  %12 = load ptr, ptr %5, align 8
  %13 = load ptr, ptr %7, align 8
  %14 = call ptr @_ZN16VerificationType10float_typeEv()
  %15 = getelementptr inbounds %class.VerificationType, ptr %9, i32 0, i32 0
  %16 = getelementptr inbounds %union.anon.3, ptr %15, i32 0, i32 0
  store ptr %14, ptr %16, align 8
  %17 = load ptr, ptr %8, align 8
  %18 = getelementptr inbounds %class.VerificationType, ptr %9, i32 0, i32 0
  %19 = getelementptr inbounds %union.anon.3, ptr %18, i32 0, i32 0
  %20 = load ptr, ptr %19, align 8
  %21 = call ptr @_ZN13StackMapFrame9pop_stackE16VerificationTypeP10JavaThread(ptr noundef nonnull align 8 dereferenceable(48) %13, ptr %20, ptr noundef %17)
  %22 = getelementptr inbounds %class.VerificationType, ptr %10, i32 0, i32 0
  %23 = getelementptr inbounds %union.anon.3, ptr %22, i32 0, i32 0
  store ptr %21, ptr %23, align 8
  %24 = load ptr, ptr %8, align 8
  %25 = call noundef zeroext i1 @_ZNK12ThreadShadow21has_pending_exceptionEv(ptr noundef nonnull align 8 dereferenceable(28) %24)
  br i1 %25, label %26, label %27

26:                                               ; preds = %4
  br label %46

27:                                               ; preds = %4
  %28 = call noundef zeroext i1 @_ZNK13ClassVerifier9has_errorEv(ptr noundef nonnull align 8 dereferenceable(8192) %12)
  br i1 %28, label %29, label %30

29:                                               ; preds = %27
  br label %46

30:                                               ; preds = %27
  %31 = load ptr, ptr %7, align 8
  %32 = load i32, ptr %6, align 4
  %33 = call ptr @_ZN16VerificationType10float_typeEv()
  %34 = getelementptr inbounds %class.VerificationType, ptr %11, i32 0, i32 0
  %35 = getelementptr inbounds %union.anon.3, ptr %34, i32 0, i32 0
  store ptr %33, ptr %35, align 8
  %36 = load ptr, ptr %8, align 8
  %37 = getelementptr inbounds %class.VerificationType, ptr %11, i32 0, i32 0
  %38 = getelementptr inbounds %union.anon.3, ptr %37, i32 0, i32 0
  %39 = load ptr, ptr %38, align 8
  call void @_ZN13StackMapFrame9set_localEi16VerificationTypeP10JavaThread(ptr noundef nonnull align 8 dereferenceable(48) %31, i32 noundef %32, ptr %39, ptr noundef %36)
  %40 = load ptr, ptr %8, align 8
  %41 = call noundef zeroext i1 @_ZNK12ThreadShadow21has_pending_exceptionEv(ptr noundef nonnull align 8 dereferenceable(28) %40)
  br i1 %41, label %42, label %43

42:                                               ; preds = %30
  br label %46

43:                                               ; preds = %30
  %44 = call noundef zeroext i1 @_ZNK13ClassVerifier9has_errorEv(ptr noundef nonnull align 8 dereferenceable(8192) %12)
  br i1 %44, label %45, label %46

45:                                               ; preds = %43
  br label %46

46:                                               ; preds = %45, %43, %42, %29, %26
  ret void
}