; Function Attrs: mustprogress nounwind uwtable
define hidden void @_ZN13ClassVerifier13verify_fstoreEiP13StackMapFrameP10JavaThread(ptr nocapture noundef nonnull readonly align 8 dereferenceable(8192) %0, i32 noundef %1, ptr noundef %2, ptr noundef %3) local_unnamed_addr #1 align 2 {
  %5 = alloca %class.VerificationType, align 8
  %6 = alloca %class.VerificationType, align 8
  call void @llvm.lifetime.start.p0(i64 8, ptr nonnull %5)
  call void @llvm.lifetime.start.p0(i64 8, ptr nonnull %6)
  store ptr inttoptr (i64 131329 to ptr), ptr %5, align 8
  %7 = getelementptr inbounds i8, ptr %2, i64 8
  %8 = load i32, ptr %7, align 8
  %.not.i = icmp eq i32 %8, 0
  br i1 %.not.i, label %25, label %9

9:                                                ; preds = %4
  %10 = getelementptr inbounds i8, ptr %2, i64 32
  %11 = load ptr, ptr %10, align 8
  %12 = sext i32 %8 to i64
  %13 = getelementptr %class.VerificationType, ptr %11, i64 %12
  %14 = getelementptr i8, ptr %13, i64 -8
  %15 = load i64, ptr %14, align 8
  store i64 %15, ptr %6, align 8
  %16 = getelementptr inbounds i8, ptr %2, i64 40
  %17 = load ptr, ptr %16, align 8
  %18 = call noundef zeroext i1 @_ZNK16VerificationType18is_assignable_fromERKS_P13ClassVerifierbP10JavaThread(ptr noundef nonnull align 8 dereferenceable(8) %5, ptr noundef nonnull align 8 dereferenceable(8) %6, ptr noundef %17, i1 noundef zeroext false, ptr noundef %3)
  %19 = getelementptr inbounds i8, ptr %3, i64 8
  %20 = load ptr, ptr %19, align 8
  %.not5.i = icmp eq ptr %20, null
  br i1 %.not5.i, label %21, label %_ZN13StackMapFrame9pop_stackE16VerificationTypeP10JavaThread.exit

21:                                               ; preds = %9
  br i1 %18, label %22, label %._crit_edge.i

._crit_edge.i:                                    ; preds = %21
  %.sroa.0.0.copyload.pre.i = load ptr, ptr %5, align 8
  br label %25

22:                                               ; preds = %21
  %23 = load i32, ptr %7, align 8
  %24 = add nsw i32 %23, -1
  store i32 %24, ptr %7, align 8
  br label %_ZN13StackMapFrame9pop_stackE16VerificationTypeP10JavaThread.exit

25:                                               ; preds = %._crit_edge.i, %4
  %.sroa.0.0.copyload.i = phi ptr [ %.sroa.0.0.copyload.pre.i, %._crit_edge.i ], [ inttoptr (i64 131329 to ptr), %4 ]
  %26 = call ptr @_ZN13StackMapFrame12pop_stack_exE16VerificationTypeP10JavaThread(ptr noundef nonnull align 8 dereferenceable(48) %2, ptr %.sroa.0.0.copyload.i, ptr noundef %3) #20
  br label %_ZN13StackMapFrame9pop_stackE16VerificationTypeP10JavaThread.exit

_ZN13StackMapFrame9pop_stackE16VerificationTypeP10JavaThread.exit: ; preds = %9, %22, %25
  call void @llvm.lifetime.end.p0(i64 8, ptr nonnull %5)
  call void @llvm.lifetime.end.p0(i64 8, ptr nonnull %6)
  %27 = getelementptr inbounds i8, ptr %3, i64 8
  %28 = load ptr, ptr %27, align 8
  %.not = icmp eq ptr %28, null
  %29 = getelementptr inbounds i8, ptr %0, i64 24
  %30 = load ptr, ptr %29, align 8
  %.not9 = icmp eq ptr %30, null
  %or.cond = select i1 %.not, i1 %.not9, i1 false
  br i1 %or.cond, label %31, label %32

31:                                               ; preds = %_ZN13StackMapFrame9pop_stackE16VerificationTypeP10JavaThread.exit
  call void @_ZN13StackMapFrame9set_localEi16VerificationTypeP10JavaThread(ptr noundef nonnull align 8 dereferenceable(48) %2, i32 noundef %1, ptr nonnull inttoptr (i64 131329 to ptr), ptr noundef nonnull %3) #20
  br label %32

32:                                               ; preds = %31, %_ZN13StackMapFrame9pop_stackE16VerificationTypeP10JavaThread.exit
  ret void
}